target datalayout = "e-m:e-p270:32:32-p271:32:32-p272:64:64-i64:64-i128:128-f80:128-n8:16:32:64-S128"
target triple = "x86_64-pc-linux-gnu"

; Function Attrs: nounwind uwtable
define dso_local i64 @names_length(ptr noundef %0) #0 {
  %2 = alloca ptr, align 8
  %3 = alloca ptr, align 8
  store ptr %0, ptr %2, align 8, !tbaa !28
  call void @llvm.lifetime.start.p0(i64 8, ptr %3) #13
  %4 = load ptr, ptr %2, align 8, !tbaa !28
  store ptr %4, ptr %3, align 8, !tbaa !28
  br label %5

5:                                                ; preds = %9, %1
  %6 = load ptr, ptr %3, align 8, !tbaa !28
  %7 = load ptr, ptr %6, align 8, !tbaa !10
  %8 = icmp ne ptr %7, null
  br i1 %8, label %9, label %12

9:                                                ; preds = %5
  %10 = load ptr, ptr %3, align 8, !tbaa !28
  %11 = getelementptr inbounds nuw ptr, ptr %10, i32 1
  store ptr %11, ptr %3, align 8, !tbaa !28
  br label %5, !llvm.loop !31

12:                                               ; preds = %5
  %13 = load ptr, ptr %3, align 8, !tbaa !28
  %14 = load ptr, ptr %2, align 8, !tbaa !28
  %15 = ptrtoint ptr %13 to i64
  %16 = ptrtoint ptr %14 to i64
  %17 = sub i64 %15, %16
  %18 = sdiv exact i64 %17, 8
  call void @llvm.lifetime.end.p0(i64 8, ptr %3) #13
  ret i64 %18
}