; Function Attrs: nofree norecurse nosync nounwind memory(argmem: read) uwtable
define dso_local range(i64 -1152921504606846976, 1152921504606846976) i64 @names_length(ptr noundef %0) local_unnamed_addr #13 {
  br label %2

2:                                                ; preds = %2, %1
  %.0 = phi ptr [ %0, %1 ], [ %4, %2 ]
  %3 = load ptr, ptr %.0, align 8, !tbaa !18
  %.not = icmp eq ptr %3, null
  %4 = getelementptr inbounds nuw i8, ptr %.0, i64 8
  br i1 %.not, label %5, label %2, !llvm.loop !22

5:                                                ; preds = %2
  %6 = ptrtoint ptr %.0 to i64
  %7 = ptrtoint ptr %0 to i64
  %8 = sub i64 %6, %7
  %9 = ashr exact i64 %8, 3
  ret i64 %9
}